target datalayout = "e-m:e-p270:32:32-p271:32:32-p272:64:64-i64:64-i128:128-f80:128-n8:16:32:64-S128"
target triple = "x86_64-pc-linux-gnu"

@hf_fmp_status = internal global i32 0, align 4

; Function Attrs: null_pointer_is_valid sspstrong uwtable
define internal i32 @dissect_fmp_status(ptr noundef %0, i32 noundef %1, ptr noundef %2, ptr noundef %3) #0 {
  %5 = alloca ptr, align 8
  %6 = alloca i32, align 4
  %7 = alloca ptr, align 8
  %8 = alloca ptr, align 8
  %9 = alloca i32, align 4
  store ptr %0, ptr %5, align 8
  store i32 %1, ptr %6, align 4
  store ptr %2, ptr %7, align 8
  store ptr %3, ptr %8, align 8
  call void @llvm.lifetime.start.p0(i64 4, ptr %9) #4
  %10 = load ptr, ptr %5, align 8
  %11 = load i32, ptr %6, align 4
  %12 = call i32 @tvb_get_ntohl(ptr noundef %10, i32 noundef %11)
  store i32 %12, ptr %9, align 4
  %13 = load i32, ptr %9, align 4
  switch i32 %13, label %46 [
    i32 0, label %14
    i32 5, label %16
    i32 12, label %18
    i32 13, label %20
    i32 22, label %22
    i32 28, label %24
    i32 79, label %26
    i32 510, label %26
    i32 505, label %26
    i32 500, label %26
    i32 501, label %26
    i32 508, label %26
    i32 502, label %28
    i32 503, label %30
    i32 504, label %32
    i32 506, label %34
    i32 507, label %36
    i32 509, label %38
    i32 511, label %40
    i32 512, label %42
    i32 600, label %44
  ]

14:                                               ; preds = %4
  %15 = load ptr, ptr %8, align 8
  store i32 0, ptr %15, align 4
  br label %48

16:                                               ; preds = %4
  %17 = load ptr, ptr %8, align 8
  store i32 1, ptr %17, align 4
  br label %48

18:                                               ; preds = %4
  %19 = load ptr, ptr %8, align 8
  store i32 1, ptr %19, align 4
  br label %48

20:                                               ; preds = %4
  %21 = load ptr, ptr %8, align 8
  store i32 1, ptr %21, align 4
  br label %48

22:                                               ; preds = %4
  %23 = load ptr, ptr %8, align 8
  store i32 1, ptr %23, align 4
  br label %48

24:                                               ; preds = %4
  %25 = load ptr, ptr %8, align 8
  store i32 0, ptr %25, align 4
  br label %48

26:                                               ; preds = %4, %4, %4, %4, %4, %4
  %27 = load ptr, ptr %8, align 8
  store i32 1, ptr %27, align 4
  br label %48

28:                                               ; preds = %4
  %29 = load ptr, ptr %8, align 8
  store i32 0, ptr %29, align 4
  br label %48

30:                                               ; preds = %4
  %31 = load ptr, ptr %8, align 8
  store i32 0, ptr %31, align 4
  br label %48

32:                                               ; preds = %4
  %33 = load ptr, ptr %8, align 8
  store i32 0, ptr %33, align 4
  br label %48

34:                                               ; preds = %4
  %35 = load ptr, ptr %8, align 8
  store i32 0, ptr %35, align 4
  br label %48

36:                                               ; preds = %4
  %37 = load ptr, ptr %8, align 8
  store i32 0, ptr %37, align 4
  br label %48

38:                                               ; preds = %4
  %39 = load ptr, ptr %8, align 8
  store i32 0, ptr %39, align 4
  br label %48

40:                                               ; preds = %4
  %41 = load ptr, ptr %8, align 8
  store i32 0, ptr %41, align 4
  br label %48

42:                                               ; preds = %4
  %43 = load ptr, ptr %8, align 8
  store i32 1, ptr %43, align 4
  br label %48

44:                                               ; preds = %4
  %45 = load ptr, ptr %8, align 8
  store i32 1, ptr %45, align 4
  br label %48

46:                                               ; preds = %4
  %47 = load ptr, ptr %8, align 8
  store i32 1, ptr %47, align 4
  br label %48

48:                                               ; preds = %46, %44, %42, %40, %38, %36, %34, %32, %30, %28, %26, %24, %22, %20, %18, %16, %14
  %49 = load ptr, ptr %5, align 8
  %50 = load ptr, ptr %7, align 8
  %51 = load i32, ptr @hf_fmp_status, align 4
  %52 = load i32, ptr %6, align 4
  %53 = call i32 @dissect_rpc_uint32(ptr noundef %49, ptr noundef %50, i32 noundef %51, i32 noundef %52)
  store i32 %53, ptr %6, align 4
  %54 = load i32, ptr %6, align 4
  call void @llvm.lifetime.end.p0(i64 4, ptr %9) #4
  ret i32 %54
}