; Function Attrs: null_pointer_is_valid sspstrong uwtable
define internal fastcc i32 @dissect_fmp_status(ptr noundef %0, i32 noundef %1, ptr noundef %2, ptr noundef writeonly captures(none) initializes((0, 4)) %3) unnamed_addr #0 {
  %5 = tail call i32 @tvb_get_ntohl(ptr noundef %0, i32 noundef %1)
  switch i32 %5, label %7 [
    i32 0, label %8
    i32 511, label %8
    i32 509, label %8
    i32 507, label %8
    i32 506, label %8
    i32 28, label %8
    i32 79, label %6
    i32 510, label %6
    i32 505, label %6
    i32 500, label %6
    i32 501, label %6
    i32 508, label %6
    i32 502, label %8
    i32 503, label %8
    i32 504, label %8
  ]

6:                                                ; preds = %4, %4, %4, %4, %4, %4
  br label %8

7:                                                ; preds = %4
  br label %8

8:                                                ; preds = %4, %4, %4, %4, %4, %4, %4, %4, %4, %7, %6
  %.sink = phi i32 [ 1, %7 ], [ 1, %6 ], [ 0, %4 ], [ 0, %4 ], [ 0, %4 ], [ 0, %4 ], [ 0, %4 ], [ 0, %4 ], [ 0, %4 ], [ 0, %4 ], [ 0, %4 ]
  store i32 %.sink, ptr %3, align 4
  %9 = load i32, ptr @hf_fmp_status, align 4
  %10 = tail call i32 @dissect_rpc_uint32(ptr noundef %0, ptr noundef %2, i32 noundef %9, i32 noundef %1)
  ret i32 %10
}